(dp0
S'w'
p1
S'Environment'
p2
sS's'
p3
S'Person'
p4
sS'd'
p5
S'Document'
p6
sS'f'
p7
S'Facility'
sS'a'
p8
S'Trigger'
<<<<<<< HEAD
sS'e'
p9
S'Operation'
p10
=======
p9
>>>>>>> d3bbe01ab941414cade9c115b2fbf7854bf9ac54
s.